ARM GAS  C:\Users\TOSHIBA\AppData\Local\Temp\ccARpfbH.s 			page 1


   1              		.syntax unified
   2              		.cpu cortex-m3
   3              		.fpu softvfp
   4              		.eabi_attribute 20, 1
   5              		.eabi_attribute 21, 1
   6              		.eabi_attribute 23, 3
   7              		.eabi_attribute 24, 1
   8              		.eabi_attribute 25, 1
   9              		.eabi_attribute 26, 1
  10              		.eabi_attribute 30, 6
  11              		.eabi_attribute 34, 1
  12              		.eabi_attribute 18, 4
  13              		.thumb
  14              		.syntax unified
  15              		.file	"LCD_SegStat_PM.c"
  16              		.text
  17              	.Ltext0:
  18              		.cfi_sections	.debug_frame
  19              		.bss
  20              		.align	2
  21              	LCD_SegStat_backup:
  22 0000 00       		.space	1
  23              		.section	.text.LCD_SegStat_SaveConfig,"ax",%progbits
  24              		.align	2
  25              		.global	LCD_SegStat_SaveConfig
  26              		.thumb
  27              		.thumb_func
  28              		.type	LCD_SegStat_SaveConfig, %function
  29              	LCD_SegStat_SaveConfig:
  30              	.LFB0:
  31              		.file 1 "Generated_Source\\PSoC5\\LCD_SegStat_PM.c"
   1:Generated_Source\PSoC5/LCD_SegStat_PM.c **** /*******************************************************************************
   2:Generated_Source\PSoC5/LCD_SegStat_PM.c **** * File Name: LCD_SegStat_PM.c
   3:Generated_Source\PSoC5/LCD_SegStat_PM.c **** * Version 2.30
   4:Generated_Source\PSoC5/LCD_SegStat_PM.c **** *
   5:Generated_Source\PSoC5/LCD_SegStat_PM.c **** * Description:
   6:Generated_Source\PSoC5/LCD_SegStat_PM.c **** *  This file provides the API source code for Power Management of the Static
   7:Generated_Source\PSoC5/LCD_SegStat_PM.c **** *  Segment LCD component.
   8:Generated_Source\PSoC5/LCD_SegStat_PM.c **** *
   9:Generated_Source\PSoC5/LCD_SegStat_PM.c **** * Note:
  10:Generated_Source\PSoC5/LCD_SegStat_PM.c **** *
  11:Generated_Source\PSoC5/LCD_SegStat_PM.c **** ********************************************************************************
  12:Generated_Source\PSoC5/LCD_SegStat_PM.c **** * Copyright 2008-2013, Cypress Semiconductor Corporation.  All rights reserved.
  13:Generated_Source\PSoC5/LCD_SegStat_PM.c **** * You may use this file only in accordance with the license, terms, conditions,
  14:Generated_Source\PSoC5/LCD_SegStat_PM.c **** * disclaimers, and limitations in the end user license agreement accompanying
  15:Generated_Source\PSoC5/LCD_SegStat_PM.c **** * the software package with which this file was provided.
  16:Generated_Source\PSoC5/LCD_SegStat_PM.c **** *******************************************************************************/
  17:Generated_Source\PSoC5/LCD_SegStat_PM.c **** 
  18:Generated_Source\PSoC5/LCD_SegStat_PM.c **** #include "LCD_SegStat.h"
  19:Generated_Source\PSoC5/LCD_SegStat_PM.c **** 
  20:Generated_Source\PSoC5/LCD_SegStat_PM.c **** 
  21:Generated_Source\PSoC5/LCD_SegStat_PM.c **** static LCD_SegStat_BACKUP_STRUCT LCD_SegStat_backup;
  22:Generated_Source\PSoC5/LCD_SegStat_PM.c **** 
  23:Generated_Source\PSoC5/LCD_SegStat_PM.c **** 
  24:Generated_Source\PSoC5/LCD_SegStat_PM.c **** /*******************************************************************************
  25:Generated_Source\PSoC5/LCD_SegStat_PM.c **** * Function Name: LCD_SegStat_SaveConfig
  26:Generated_Source\PSoC5/LCD_SegStat_PM.c **** ********************************************************************************
ARM GAS  C:\Users\TOSHIBA\AppData\Local\Temp\ccARpfbH.s 			page 2


  27:Generated_Source\PSoC5/LCD_SegStat_PM.c **** *
  28:Generated_Source\PSoC5/LCD_SegStat_PM.c **** * Summary:
  29:Generated_Source\PSoC5/LCD_SegStat_PM.c **** *  Does nothing, provided for consistency.
  30:Generated_Source\PSoC5/LCD_SegStat_PM.c **** *
  31:Generated_Source\PSoC5/LCD_SegStat_PM.c **** * Parameters:
  32:Generated_Source\PSoC5/LCD_SegStat_PM.c **** *  None.
  33:Generated_Source\PSoC5/LCD_SegStat_PM.c **** *
  34:Generated_Source\PSoC5/LCD_SegStat_PM.c **** * Return:
  35:Generated_Source\PSoC5/LCD_SegStat_PM.c **** *  None.
  36:Generated_Source\PSoC5/LCD_SegStat_PM.c **** *
  37:Generated_Source\PSoC5/LCD_SegStat_PM.c **** *******************************************************************************/
  38:Generated_Source\PSoC5/LCD_SegStat_PM.c **** void LCD_SegStat_SaveConfig(void) 
  39:Generated_Source\PSoC5/LCD_SegStat_PM.c **** {
  32              		.loc 1 39 0
  33              		.cfi_startproc
  34              		@ args = 0, pretend = 0, frame = 0
  35              		@ frame_needed = 1, uses_anonymous_args = 0
  36              		@ link register save eliminated.
  37 0000 80B4     		push	{r7}
  38              		.cfi_def_cfa_offset 4
  39              		.cfi_offset 7, -4
  40 0002 00AF     		add	r7, sp, #0
  41              		.cfi_def_cfa_register 7
  40:Generated_Source\PSoC5/LCD_SegStat_PM.c ****     /* Nothing to save in current version */
  41:Generated_Source\PSoC5/LCD_SegStat_PM.c **** }
  42              		.loc 1 41 0
  43 0004 00BF     		nop
  44 0006 BD46     		mov	sp, r7
  45              		.cfi_def_cfa_register 13
  46              		@ sp needed
  47 0008 80BC     		pop	{r7}
  48              		.cfi_restore 7
  49              		.cfi_def_cfa_offset 0
  50 000a 7047     		bx	lr
  51              		.cfi_endproc
  52              	.LFE0:
  53              		.size	LCD_SegStat_SaveConfig, .-LCD_SegStat_SaveConfig
  54              		.section	.text.LCD_SegStat_RestoreConfig,"ax",%progbits
  55              		.align	2
  56              		.global	LCD_SegStat_RestoreConfig
  57              		.thumb
  58              		.thumb_func
  59              		.type	LCD_SegStat_RestoreConfig, %function
  60              	LCD_SegStat_RestoreConfig:
  61              	.LFB1:
  42:Generated_Source\PSoC5/LCD_SegStat_PM.c **** 
  43:Generated_Source\PSoC5/LCD_SegStat_PM.c **** 
  44:Generated_Source\PSoC5/LCD_SegStat_PM.c **** /*******************************************************************************
  45:Generated_Source\PSoC5/LCD_SegStat_PM.c **** * Function Name: LCD_SegStat_RestoreConfig
  46:Generated_Source\PSoC5/LCD_SegStat_PM.c **** ********************************************************************************
  47:Generated_Source\PSoC5/LCD_SegStat_PM.c **** *
  48:Generated_Source\PSoC5/LCD_SegStat_PM.c **** * Summary:
  49:Generated_Source\PSoC5/LCD_SegStat_PM.c **** *  Does nothing, provided for consistency.
  50:Generated_Source\PSoC5/LCD_SegStat_PM.c **** *
  51:Generated_Source\PSoC5/LCD_SegStat_PM.c **** * Parameters:
  52:Generated_Source\PSoC5/LCD_SegStat_PM.c **** *  None.
  53:Generated_Source\PSoC5/LCD_SegStat_PM.c **** *
ARM GAS  C:\Users\TOSHIBA\AppData\Local\Temp\ccARpfbH.s 			page 3


  54:Generated_Source\PSoC5/LCD_SegStat_PM.c **** * Return:
  55:Generated_Source\PSoC5/LCD_SegStat_PM.c **** *  None.
  56:Generated_Source\PSoC5/LCD_SegStat_PM.c **** *
  57:Generated_Source\PSoC5/LCD_SegStat_PM.c **** *******************************************************************************/
  58:Generated_Source\PSoC5/LCD_SegStat_PM.c **** void LCD_SegStat_RestoreConfig(void) 
  59:Generated_Source\PSoC5/LCD_SegStat_PM.c **** {
  62              		.loc 1 59 0
  63              		.cfi_startproc
  64              		@ args = 0, pretend = 0, frame = 0
  65              		@ frame_needed = 1, uses_anonymous_args = 0
  66              		@ link register save eliminated.
  67 0000 80B4     		push	{r7}
  68              		.cfi_def_cfa_offset 4
  69              		.cfi_offset 7, -4
  70 0002 00AF     		add	r7, sp, #0
  71              		.cfi_def_cfa_register 7
  60:Generated_Source\PSoC5/LCD_SegStat_PM.c ****     /* Nothing to restore in current version */
  61:Generated_Source\PSoC5/LCD_SegStat_PM.c **** }
  72              		.loc 1 61 0
  73 0004 00BF     		nop
  74 0006 BD46     		mov	sp, r7
  75              		.cfi_def_cfa_register 13
  76              		@ sp needed
  77 0008 80BC     		pop	{r7}
  78              		.cfi_restore 7
  79              		.cfi_def_cfa_offset 0
  80 000a 7047     		bx	lr
  81              		.cfi_endproc
  82              	.LFE1:
  83              		.size	LCD_SegStat_RestoreConfig, .-LCD_SegStat_RestoreConfig
  84              		.section	.text.LCD_SegStat_Sleep,"ax",%progbits
  85              		.align	2
  86              		.global	LCD_SegStat_Sleep
  87              		.thumb
  88              		.thumb_func
  89              		.type	LCD_SegStat_Sleep, %function
  90              	LCD_SegStat_Sleep:
  91              	.LFB2:
  62:Generated_Source\PSoC5/LCD_SegStat_PM.c **** 
  63:Generated_Source\PSoC5/LCD_SegStat_PM.c **** 
  64:Generated_Source\PSoC5/LCD_SegStat_PM.c **** /*******************************************************************************
  65:Generated_Source\PSoC5/LCD_SegStat_PM.c **** * Function Name: LCD_SegStat_Sleep
  66:Generated_Source\PSoC5/LCD_SegStat_PM.c **** ********************************************************************************
  67:Generated_Source\PSoC5/LCD_SegStat_PM.c **** *
  68:Generated_Source\PSoC5/LCD_SegStat_PM.c **** * Summary:
  69:Generated_Source\PSoC5/LCD_SegStat_PM.c **** *  Prepares component for entering the sleep mode.
  70:Generated_Source\PSoC5/LCD_SegStat_PM.c **** *
  71:Generated_Source\PSoC5/LCD_SegStat_PM.c **** * Parameters:
  72:Generated_Source\PSoC5/LCD_SegStat_PM.c **** *  None.
  73:Generated_Source\PSoC5/LCD_SegStat_PM.c **** 
  74:Generated_Source\PSoC5/LCD_SegStat_PM.c **** *
  75:Generated_Source\PSoC5/LCD_SegStat_PM.c **** * Return:
  76:Generated_Source\PSoC5/LCD_SegStat_PM.c **** *  None.
  77:Generated_Source\PSoC5/LCD_SegStat_PM.c **** *
  78:Generated_Source\PSoC5/LCD_SegStat_PM.c **** * Global variables:
  79:Generated_Source\PSoC5/LCD_SegStat_PM.c **** *  LCD_SegStat_enableState - holds a state of the component that will be
  80:Generated_Source\PSoC5/LCD_SegStat_PM.c **** *  stored in LCD_SegStat_backup.
ARM GAS  C:\Users\TOSHIBA\AppData\Local\Temp\ccARpfbH.s 			page 4


  81:Generated_Source\PSoC5/LCD_SegStat_PM.c **** *
  82:Generated_Source\PSoC5/LCD_SegStat_PM.c **** *  LCD_SegStat_backup - stores the state of the component.
  83:Generated_Source\PSoC5/LCD_SegStat_PM.c **** *
  84:Generated_Source\PSoC5/LCD_SegStat_PM.c **** * Reentrant:
  85:Generated_Source\PSoC5/LCD_SegStat_PM.c **** *  No.
  86:Generated_Source\PSoC5/LCD_SegStat_PM.c **** *
  87:Generated_Source\PSoC5/LCD_SegStat_PM.c **** *******************************************************************************/
  88:Generated_Source\PSoC5/LCD_SegStat_PM.c **** void LCD_SegStat_Sleep(void) 
  89:Generated_Source\PSoC5/LCD_SegStat_PM.c **** {
  92              		.loc 1 89 0
  93              		.cfi_startproc
  94              		@ args = 0, pretend = 0, frame = 0
  95              		@ frame_needed = 1, uses_anonymous_args = 0
  96 0000 80B5     		push	{r7, lr}
  97              		.cfi_def_cfa_offset 8
  98              		.cfi_offset 7, -8
  99              		.cfi_offset 14, -4
 100 0002 00AF     		add	r7, sp, #0
 101              		.cfi_def_cfa_register 7
  90:Generated_Source\PSoC5/LCD_SegStat_PM.c ****     LCD_SegStat_backup.enableState = LCD_SegStat_enableState;
 102              		.loc 1 90 0
 103 0004 044B     		ldr	r3, .L4
 104 0006 1A78     		ldrb	r2, [r3]	@ zero_extendqisi2
 105 0008 044B     		ldr	r3, .L4+4
 106 000a 1A70     		strb	r2, [r3]
  91:Generated_Source\PSoC5/LCD_SegStat_PM.c ****     LCD_SegStat_SaveConfig();
 107              		.loc 1 91 0
 108 000c FFF7FEFF 		bl	LCD_SegStat_SaveConfig
  92:Generated_Source\PSoC5/LCD_SegStat_PM.c ****     LCD_SegStat_Stop();
 109              		.loc 1 92 0
 110 0010 FFF7FEFF 		bl	LCD_SegStat_Stop
  93:Generated_Source\PSoC5/LCD_SegStat_PM.c **** }
 111              		.loc 1 93 0
 112 0014 00BF     		nop
 113 0016 80BD     		pop	{r7, pc}
 114              	.L5:
 115              		.align	2
 116              	.L4:
 117 0018 00000000 		.word	LCD_SegStat_enableState
 118 001c 00000000 		.word	LCD_SegStat_backup
 119              		.cfi_endproc
 120              	.LFE2:
 121              		.size	LCD_SegStat_Sleep, .-LCD_SegStat_Sleep
 122              		.section	.text.LCD_SegStat_Wakeup,"ax",%progbits
 123              		.align	2
 124              		.global	LCD_SegStat_Wakeup
 125              		.thumb
 126              		.thumb_func
 127              		.type	LCD_SegStat_Wakeup, %function
 128              	LCD_SegStat_Wakeup:
 129              	.LFB3:
  94:Generated_Source\PSoC5/LCD_SegStat_PM.c **** 
  95:Generated_Source\PSoC5/LCD_SegStat_PM.c **** 
  96:Generated_Source\PSoC5/LCD_SegStat_PM.c **** /*******************************************************************************
  97:Generated_Source\PSoC5/LCD_SegStat_PM.c **** * Function Name: LCD_SegStat_Wakeup
  98:Generated_Source\PSoC5/LCD_SegStat_PM.c **** ********************************************************************************
  99:Generated_Source\PSoC5/LCD_SegStat_PM.c **** *
ARM GAS  C:\Users\TOSHIBA\AppData\Local\Temp\ccARpfbH.s 			page 5


 100:Generated_Source\PSoC5/LCD_SegStat_PM.c **** * Summary:
 101:Generated_Source\PSoC5/LCD_SegStat_PM.c **** *  Wakes component from sleep mode. Configures DMA and enables the component for
 102:Generated_Source\PSoC5/LCD_SegStat_PM.c **** *  normal operation.
 103:Generated_Source\PSoC5/LCD_SegStat_PM.c **** *
 104:Generated_Source\PSoC5/LCD_SegStat_PM.c **** * Parameters:
 105:Generated_Source\PSoC5/LCD_SegStat_PM.c **** *  LCD_SegStat_enableState - Global variable.
 106:Generated_Source\PSoC5/LCD_SegStat_PM.c **** *
 107:Generated_Source\PSoC5/LCD_SegStat_PM.c **** * Global variables:
 108:Generated_Source\PSoC5/LCD_SegStat_PM.c **** *  LCD_SegStat_backup - this API fetch the component state from the
 109:Generated_Source\PSoC5/LCD_SegStat_PM.c **** *  structure to analyze and decide if the component should be enabled or not.
 110:Generated_Source\PSoC5/LCD_SegStat_PM.c **** *
 111:Generated_Source\PSoC5/LCD_SegStat_PM.c **** * Return:
 112:Generated_Source\PSoC5/LCD_SegStat_PM.c **** *  Status one of standard status for PSoC3 Component:
 113:Generated_Source\PSoC5/LCD_SegStat_PM.c **** *       CYRET_SUCCESS - Function completed successfully.
 114:Generated_Source\PSoC5/LCD_SegStat_PM.c **** *       CYRET_LOCKED - The object was locked, already in use. Some of TDs or
 115:Generated_Source\PSoC5/LCD_SegStat_PM.c **** *                      a channel already in use or the component was turned
 116:Generated_Source\PSoC5/LCD_SegStat_PM.c **** *                      off by the user before entering to a sleep.
 117:Generated_Source\PSoC5/LCD_SegStat_PM.c **** *
 118:Generated_Source\PSoC5/LCD_SegStat_PM.c **** * Reentrant:
 119:Generated_Source\PSoC5/LCD_SegStat_PM.c **** *  No.
 120:Generated_Source\PSoC5/LCD_SegStat_PM.c **** *
 121:Generated_Source\PSoC5/LCD_SegStat_PM.c **** *******************************************************************************/
 122:Generated_Source\PSoC5/LCD_SegStat_PM.c **** uint8 LCD_SegStat_Wakeup(void) 
 123:Generated_Source\PSoC5/LCD_SegStat_PM.c **** {
 130              		.loc 1 123 0
 131              		.cfi_startproc
 132              		@ args = 0, pretend = 0, frame = 8
 133              		@ frame_needed = 1, uses_anonymous_args = 0
 134 0000 80B5     		push	{r7, lr}
 135              		.cfi_def_cfa_offset 8
 136              		.cfi_offset 7, -8
 137              		.cfi_offset 14, -4
 138 0002 82B0     		sub	sp, sp, #8
 139              		.cfi_def_cfa_offset 16
 140 0004 00AF     		add	r7, sp, #0
 141              		.cfi_def_cfa_register 7
 124:Generated_Source\PSoC5/LCD_SegStat_PM.c ****     uint8 status;
 125:Generated_Source\PSoC5/LCD_SegStat_PM.c **** 
 126:Generated_Source\PSoC5/LCD_SegStat_PM.c ****     LCD_SegStat_RestoreConfig();
 142              		.loc 1 126 0
 143 0006 FFF7FEFF 		bl	LCD_SegStat_RestoreConfig
 127:Generated_Source\PSoC5/LCD_SegStat_PM.c **** 
 128:Generated_Source\PSoC5/LCD_SegStat_PM.c ****     if(LCD_SegStat_backup.enableState == 1u)
 144              		.loc 1 128 0
 145 000a 084B     		ldr	r3, .L10
 146 000c 1B78     		ldrb	r3, [r3]	@ zero_extendqisi2
 147 000e 012B     		cmp	r3, #1
 148 0010 04D1     		bne	.L7
 129:Generated_Source\PSoC5/LCD_SegStat_PM.c ****     {
 130:Generated_Source\PSoC5/LCD_SegStat_PM.c ****        status = LCD_SegStat_Enable();
 149              		.loc 1 130 0
 150 0012 FFF7FEFF 		bl	LCD_SegStat_Enable
 151 0016 0346     		mov	r3, r0
 152 0018 FB71     		strb	r3, [r7, #7]
 153 001a 01E0     		b	.L8
 154              	.L7:
 131:Generated_Source\PSoC5/LCD_SegStat_PM.c ****     }
ARM GAS  C:\Users\TOSHIBA\AppData\Local\Temp\ccARpfbH.s 			page 6


 132:Generated_Source\PSoC5/LCD_SegStat_PM.c ****     else
 133:Generated_Source\PSoC5/LCD_SegStat_PM.c ****     {
 134:Generated_Source\PSoC5/LCD_SegStat_PM.c ****         status = CYRET_LOCKED;
 155              		.loc 1 134 0
 156 001c 0423     		movs	r3, #4
 157 001e FB71     		strb	r3, [r7, #7]
 158              	.L8:
 135:Generated_Source\PSoC5/LCD_SegStat_PM.c ****     }
 136:Generated_Source\PSoC5/LCD_SegStat_PM.c **** 
 137:Generated_Source\PSoC5/LCD_SegStat_PM.c ****     return(status);
 159              		.loc 1 137 0
 160 0020 FB79     		ldrb	r3, [r7, #7]	@ zero_extendqisi2
 138:Generated_Source\PSoC5/LCD_SegStat_PM.c **** }
 161              		.loc 1 138 0
 162 0022 1846     		mov	r0, r3
 163 0024 0837     		adds	r7, r7, #8
 164              		.cfi_def_cfa_offset 8
 165 0026 BD46     		mov	sp, r7
 166              		.cfi_def_cfa_register 13
 167              		@ sp needed
 168 0028 80BD     		pop	{r7, pc}
 169              	.L11:
 170 002a 00BF     		.align	2
 171              	.L10:
 172 002c 00000000 		.word	LCD_SegStat_backup
 173              		.cfi_endproc
 174              	.LFE3:
 175              		.size	LCD_SegStat_Wakeup, .-LCD_SegStat_Wakeup
 176              		.text
 177              	.Letext0:
 178              		.file 2 "Generated_Source\\PSoC5\\cytypes.h"
 179              		.file 3 "Generated_Source\\PSoC5\\LCD_SegStat.h"