ARM GAS  C:\Users\TOSHIBA\AppData\Local\Temp\ccT0E2b8.s 			page 1


   1              		.syntax unified
   2              		.cpu cortex-m3
   3              		.fpu softvfp
   4              		.eabi_attribute 20, 1
   5              		.eabi_attribute 21, 1
   6              		.eabi_attribute 23, 3
   7              		.eabi_attribute 24, 1
   8              		.eabi_attribute 25, 1
   9              		.eabi_attribute 26, 1
  10              		.eabi_attribute 30, 6
  11              		.eabi_attribute 34, 1
  12              		.eabi_attribute 18, 4
  13              		.thumb
  14              		.syntax unified
  15              		.file	"main.c"
  16              		.text
  17              	.Ltext0:
  18              		.cfi_sections	.debug_frame
  19              		.section	.text.WakeUpIsr_Int,"ax",%progbits
  20              		.align	2
  21              		.global	WakeUpIsr_Int
  22              		.thumb
  23              		.thumb_func
  24              		.type	WakeUpIsr_Int, %function
  25              	WakeUpIsr_Int:
  26              	.LFB63:
  27              		.file 1 "main.c"
   1:main.c        **** /*******************************************************************************
   2:main.c        **** * File Name: main.c
   3:main.c        **** *
   4:main.c        **** * Version: 3.0
   5:main.c        **** *
   6:main.c        **** * Description:
   7:main.c        **** *  This example project displays 4 digit decimal value, then decrements the 
   8:main.c        **** *  value and displays the updated value after a small delay. Then the part goes
   9:main.c        **** *  to a Sleep mode, during wich the LCD is turned off, and after a button prees
  10:main.c        **** *  it wakes and continues its normal work.
  11:main.c        **** *
  12:main.c        **** ********************************************************************************
  13:main.c        **** * Copyright 2012-2014, Cypress Semiconductor Corporation. All rights reserved.
  14:main.c        **** * This software is owned by Cypress Semiconductor Corporation and is protected
  15:main.c        **** * by and subject to worldwide patent and copyright laws and treaties.
  16:main.c        **** * Therefore, you may use this software only as provided in the license agreement
  17:main.c        **** * accompanying the software package from which you obtained this software.
  18:main.c        **** * CYPRESS AND ITS SUPPLIERS MAKE NO WARRANTY OF ANY KIND, EXPRESS OR IMPLIED,
  19:main.c        **** * WITH REGARD TO THIS SOFTWARE, INCLUDING, BUT NOT LIMITED TO, NONINFRINGEMENT,
  20:main.c        **** * IMPLIED WARRANTIES OF MERCHANTABILITY AND FITNESS FOR A PARTICULAR PURPOSE.
  21:main.c        **** *******************************************************************************/
  22:main.c        **** 
  23:main.c        **** #include <project.h>
  24:main.c        **** 
  25:main.c        **** 
  26:main.c        **** /*******************************************************************************
  27:main.c        **** * Function Name: CY_ISR(WakeUpIsr_Interrupt)
  28:main.c        **** ********************************************************************************
  29:main.c        **** *
  30:main.c        **** * Summary:
ARM GAS  C:\Users\TOSHIBA\AppData\Local\Temp\ccT0E2b8.s 			page 2


  31:main.c        **** *  1. Clears interrupts from Pin_wakeup pin. 
  32:main.c        **** *
  33:main.c        **** * Parameters:
  34:main.c        **** *  None.
  35:main.c        **** *
  36:main.c        **** * Return:
  37:main.c        **** *  None.
  38:main.c        **** *
  39:main.c        **** *******************************************************************************/
  40:main.c        **** CY_ISR(WakeUpIsr_Int)
  41:main.c        **** {
  28              		.loc 1 41 0
  29              		.cfi_startproc
  30              		@ args = 0, pretend = 0, frame = 0
  31              		@ frame_needed = 1, uses_anonymous_args = 0
  32 0000 80B5     		push	{r7, lr}
  33              		.cfi_def_cfa_offset 8
  34              		.cfi_offset 7, -8
  35              		.cfi_offset 14, -4
  36 0002 00AF     		add	r7, sp, #0
  37              		.cfi_def_cfa_register 7
  42:main.c        ****     Pin_wakeup_ClearInterrupt();
  38              		.loc 1 42 0
  39 0004 FFF7FEFF 		bl	Pin_wakeup_ClearInterrupt
  43:main.c        **** }
  40              		.loc 1 43 0
  41 0008 00BF     		nop
  42 000a 80BD     		pop	{r7, pc}
  43              		.cfi_endproc
  44              	.LFE63:
  45              		.size	WakeUpIsr_Int, .-WakeUpIsr_Int
  46              		.section	.rodata
  47              		.align	2
  48              	.LC0:
  49 0000 496E6974 		.ascii	"Init status: Success\000"
  49      20737461 
  49      7475733A 
  49      20537563 
  49      63657373 
  50 0015 000000   		.align	2
  51              	.LC1:
  52 0018 496E6974 		.ascii	"Init status: Failure\000"
  52      20737461 
  52      7475733A 
  52      20466169 
  52      6C757265 
  53 002d 000000   		.align	2
  54              	.LC2:
  55 0030 43757272 		.ascii	"Curr status: Success\000"
  55      20737461 
  55      7475733A 
  55      20537563 
  55      63657373 
  56 0045 000000   		.align	2
  57              	.LC3:
  58 0048 43757272 		.ascii	"Curr status: Failure\000"
  58      20737461 
ARM GAS  C:\Users\TOSHIBA\AppData\Local\Temp\ccT0E2b8.s 			page 3


  58      7475733A 
  58      20466169 
  58      6C757265 
  59              		.section	.text.main,"ax",%progbits
  60              		.align	2
  61              		.global	main
  62              		.thumb
  63              		.thumb_func
  64              		.type	main, %function
  65              	main:
  66              	.LFB64:
  44:main.c        **** 
  45:main.c        **** 
  46:main.c        **** /*******************************************************************************
  47:main.c        **** * Function Name: main
  48:main.c        **** ********************************************************************************
  49:main.c        **** *
  50:main.c        **** * Summary:
  51:main.c        **** *  1. Enables global interrupts and starts Segment LCD, Character LCD and ISR 
  52:main.c        **** *  components.
  53:main.c        **** *  2. Displays a message on Char LCD if Segment LCD started successfully or not.
  54:main.c        **** *  3. Decrements the 4 digit decimal value and displays it on the Segment LCD
  55:main.c        **** *  glass.      
  56:main.c        **** *  4. Performs a small delay and after that prepares Segment LCD for entering 
  57:main.c        **** *  to a sleep mode. 
  58:main.c        **** *  5. Sets Seg LCD pin drive modes to Hi-Z analog.
  59:main.c        **** *  7. Puts part to a sleep mode and specifiew PICU as a wakeup source.
  60:main.c        **** *  8. Wakes the part after a button press interrupt.
  61:main.c        **** *  9. Restores Seg LCD pin drive modes and wakes the components.
  62:main.c        **** *  10. Displays a message on Char LCD if Segment LCD waked successfully or not.
  63:main.c        **** *
  64:main.c        **** * Parameters:
  65:main.c        **** *  None.
  66:main.c        **** *
  67:main.c        **** * Return:
  68:main.c        **** *  None.
  69:main.c        **** *
  70:main.c        **** *******************************************************************************/
  71:main.c        **** int main()
  72:main.c        **** {
  67              		.loc 1 72 0
  68              		.cfi_startproc
  69              		@ args = 0, pretend = 0, frame = 8
  70              		@ frame_needed = 1, uses_anonymous_args = 0
  71 0000 80B5     		push	{r7, lr}
  72              		.cfi_def_cfa_offset 8
  73              		.cfi_offset 7, -8
  74              		.cfi_offset 14, -4
  75 0002 82B0     		sub	sp, sp, #8
  76              		.cfi_def_cfa_offset 16
  77 0004 00AF     		add	r7, sp, #0
  78              		.cfi_def_cfa_register 7
  73:main.c        ****     uint8 status = 0u;
  79              		.loc 1 73 0
  80 0006 0023     		movs	r3, #0
  81 0008 7B71     		strb	r3, [r7, #5]
  74:main.c        ****     
ARM GAS  C:\Users\TOSHIBA\AppData\Local\Temp\ccT0E2b8.s 			page 4


  75:main.c        ****     /* Initialize the value to be displayed on the LCD. */
  76:main.c        ****     uint16 value = 9999u;
  82              		.loc 1 76 0
  83 000a 42F20F73 		movw	r3, #9999
  84 000e FB80     		strh	r3, [r7, #6]	@ movhi
  77:main.c        ****     
  78:main.c        ****     /* Enable global interrupts. */
  79:main.c        ****     CyGlobalIntEnable;
  85              		.loc 1 79 0
  86              		.syntax unified
  87              	@ 79 "main.c" 1
  88 0010 62B6     		CPSIE   i
  89              	@ 0 "" 2
  80:main.c        ****     
  81:main.c        ****     WakeUpIsr_StartEx(WakeUpIsr_Int);
  90              		.loc 1 81 0
  91              		.thumb
  92              		.syntax unified
  93 0012 2948     		ldr	r0, .L8
  94 0014 FFF7FEFF 		bl	WakeUpIsr_StartEx
  82:main.c        ****     
  83:main.c        ****     LCD_Char_Start();
  95              		.loc 1 83 0
  96 0018 FFF7FEFF 		bl	LCD_Char_Start
  84:main.c        ****     
  85:main.c        ****     /* Start the SegLCD component operation. */
  86:main.c        ****     status = LCD_SegStat_Start();
  97              		.loc 1 86 0
  98 001c FFF7FEFF 		bl	LCD_SegStat_Start
  99 0020 0346     		mov	r3, r0
 100 0022 7B71     		strb	r3, [r7, #5]
  87:main.c        ****     
  88:main.c        ****     /* Set the output position on Char LCD to row - 0, column - 0. */
  89:main.c        ****     LCD_Char_Position(0u, 0u);
 101              		.loc 1 89 0
 102 0024 0021     		movs	r1, #0
 103 0026 0020     		movs	r0, #0
 104 0028 FFF7FEFF 		bl	LCD_Char_Position
  90:main.c        ****     
  91:main.c        ****     /* Parse the status and display initialization status message. */
  92:main.c        ****     if(status == CYRET_SUCCESS)
 105              		.loc 1 92 0
 106 002c 7B79     		ldrb	r3, [r7, #5]	@ zero_extendqisi2
 107 002e 002B     		cmp	r3, #0
 108 0030 03D1     		bne	.L3
  93:main.c        ****     {
  94:main.c        ****         LCD_Char_PrintString("Init status: Success");
 109              		.loc 1 94 0
 110 0032 2248     		ldr	r0, .L8+4
 111 0034 FFF7FEFF 		bl	LCD_Char_PrintString
 112 0038 02E0     		b	.L4
 113              	.L3:
  95:main.c        ****     }
  96:main.c        ****     else
  97:main.c        ****     {
  98:main.c        ****         LCD_Char_PrintString("Init status: Failure");
 114              		.loc 1 98 0
ARM GAS  C:\Users\TOSHIBA\AppData\Local\Temp\ccT0E2b8.s 			page 5


 115 003a 2148     		ldr	r0, .L8+8
 116 003c FFF7FEFF 		bl	LCD_Char_PrintString
 117              	.L4:
  99:main.c        ****     }
 100:main.c        ****     
 101:main.c        ****     for(;;)
 102:main.c        ****     {   
 103:main.c        ****         /* Decrement the value. */
 104:main.c        ****         value = value - 1u;
 118              		.loc 1 104 0
 119 0040 FB88     		ldrh	r3, [r7, #6]	@ movhi
 120 0042 013B     		subs	r3, r3, #1
 121 0044 FB80     		strh	r3, [r7, #6]	@ movhi
 105:main.c        ****         
 106:main.c        ****         /* Display current value on the LCD. */
 107:main.c        ****         LCD_SegStat_Write7SegNumber_0(value, 0u, 0u);
 122              		.loc 1 107 0
 123 0046 FB88     		ldrh	r3, [r7, #6]
 124 0048 0022     		movs	r2, #0
 125 004a 0021     		movs	r1, #0
 126 004c 1846     		mov	r0, r3
 127 004e FFF7FEFF 		bl	LCD_SegStat_Write7SegNumber_0
 108:main.c        ****         
 109:main.c        ****         /* Small delay */
 110:main.c        ****         CyDelay(4u);
 128              		.loc 1 110 0
 129 0052 0420     		movs	r0, #4
 130 0054 FFF7FEFF 		bl	CyDelay
 111:main.c        ****         
 112:main.c        ****         /* Reset the value to 9999 if it decremented to 0. */
 113:main.c        ****         if(value == 0u)
 131              		.loc 1 113 0
 132 0058 FB88     		ldrh	r3, [r7, #6]
 133 005a 002B     		cmp	r3, #0
 134 005c 02D1     		bne	.L5
 114:main.c        ****         {
 115:main.c        ****             value = 9999u;        
 135              		.loc 1 115 0
 136 005e 42F20F73 		movw	r3, #9999
 137 0062 FB80     		strh	r3, [r7, #6]	@ movhi
 138              	.L5:
 116:main.c        ****         }
 117:main.c        ****         
 118:main.c        ****         /* Some delay to make image on LCD frezze for some time. */
 119:main.c        ****         CyDelay(500u);
 139              		.loc 1 119 0
 140 0064 4FF4FA70 		mov	r0, #500
 141 0068 FFF7FEFF 		bl	CyDelay
 120:main.c        ****         
 121:main.c        ****         /* Prepare component for entering to a Sleep mode. */
 122:main.c        ****         LCD_SegStat_Sleep();
 142              		.loc 1 122 0
 143 006c FFF7FEFF 		bl	LCD_SegStat_Sleep
 123:main.c        ****         
 124:main.c        ****         /* Set component's pin mode to HiZ for both segment and common lines to 
 125:main.c        ****         * decrese current consumption and to avoid LCD glaass damaging .
 126:main.c        ****         */
ARM GAS  C:\Users\TOSHIBA\AppData\Local\Temp\ccT0E2b8.s 			page 6


 127:main.c        ****         LCD_SegStat_SegPort_SetDriveMode(LCD_SegStat_DM_ALG_HIZ);
 144              		.loc 1 127 0
 145 0070 0020     		movs	r0, #0
 146 0072 FFF7FEFF 		bl	LCD_SegStat_SegPort_SetDriveMode
 128:main.c        ****         LCD_SegStat_ComPort_SetDriveMode(LCD_SegStat_DM_ALG_HIZ);
 147              		.loc 1 128 0
 148 0076 0020     		movs	r0, #0
 149 0078 FFF7FEFF 		bl	LCD_SegStat_ComPort_SetDriveMode
 129:main.c        ****         
 130:main.c        ****         /* Puts entire chip excet the PICu into a sleep. */
 131:main.c        ****         CyPmSleep(PM_SLEEP_TIME_NONE, PM_SLEEP_SRC_PICU);
 150              		.loc 1 131 0
 151 007c 4021     		movs	r1, #64
 152 007e 0020     		movs	r0, #0
 153 0080 FFF7FEFF 		bl	CyPmSleep
 132:main.c        **** 
 133:main.c        ****         /* Restore pin mode back to Strong. */
 134:main.c        ****         LCD_SegStat_SegPort_SetDriveMode(LCD_SegStat_DM_STRONG);
 154              		.loc 1 134 0
 155 0084 0C20     		movs	r0, #12
 156 0086 FFF7FEFF 		bl	LCD_SegStat_SegPort_SetDriveMode
 135:main.c        ****         LCD_SegStat_ComPort_SetDriveMode(LCD_SegStat_DM_STRONG);
 157              		.loc 1 135 0
 158 008a 0C20     		movs	r0, #12
 159 008c FFF7FEFF 		bl	LCD_SegStat_ComPort_SetDriveMode
 136:main.c        ****         
 137:main.c        ****         /* Wake the LCD and capture the status. */
 138:main.c        ****         status = LCD_SegStat_Wakeup();
 160              		.loc 1 138 0
 161 0090 FFF7FEFF 		bl	LCD_SegStat_Wakeup
 162 0094 0346     		mov	r3, r0
 163 0096 7B71     		strb	r3, [r7, #5]
 139:main.c        ****         
 140:main.c        ****         LCD_Char_Position(1u, 0u);
 164              		.loc 1 140 0
 165 0098 0021     		movs	r1, #0
 166 009a 0120     		movs	r0, #1
 167 009c FFF7FEFF 		bl	LCD_Char_Position
 141:main.c        ****         
 142:main.c        ****         /* Parse the status and display current status message. */
 143:main.c        ****         if(status == CYRET_SUCCESS)
 168              		.loc 1 143 0
 169 00a0 7B79     		ldrb	r3, [r7, #5]	@ zero_extendqisi2
 170 00a2 002B     		cmp	r3, #0
 171 00a4 03D1     		bne	.L6
 144:main.c        ****         {
 145:main.c        ****             LCD_Char_PrintString("Curr status: Success");
 172              		.loc 1 145 0
 173 00a6 0748     		ldr	r0, .L8+12
 174 00a8 FFF7FEFF 		bl	LCD_Char_PrintString
 175 00ac C8E7     		b	.L4
 176              	.L6:
 146:main.c        ****         }
 147:main.c        ****         else
 148:main.c        ****         {
 149:main.c        ****             LCD_Char_PrintString("Curr status: Failure");
 177              		.loc 1 149 0
ARM GAS  C:\Users\TOSHIBA\AppData\Local\Temp\ccT0E2b8.s 			page 7


 178 00ae 0648     		ldr	r0, .L8+16
 179 00b0 FFF7FEFF 		bl	LCD_Char_PrintString
 150:main.c        ****         }           
 151:main.c        ****     }
 180              		.loc 1 151 0
 181 00b4 C4E7     		b	.L4
 182              	.L9:
 183 00b6 00BF     		.align	2
 184              	.L8:
 185 00b8 00000000 		.word	WakeUpIsr_Int
 186 00bc 00000000 		.word	.LC0
 187 00c0 18000000 		.word	.LC1
 188 00c4 30000000 		.word	.LC2
 189 00c8 48000000 		.word	.LC3
 190              		.cfi_endproc
 191              	.LFE64:
 192              		.size	main, .-main
 193              		.text
 194              	.Letext0:
 195              		.file 2 "c:\\program files (x86)\\cypress\\psoc creator\\4.1\\psoc creator\\import\\gnu\\arm\\5.4.
 196              		.file 3 "c:\\program files (x86)\\cypress\\psoc creator\\4.1\\psoc creator\\import\\gnu\\arm\\5.4.
 197              		.file 4 "Generated_Source\\PSoC5/cytypes.h"
 198              		.file 5 "Generated_Source\\PSoC5/core_cm3.h"