ARM GAS  C:\Users\TOSHIBA\AppData\Local\Temp\ccDRnKHe.s 			page 1


   1              		.syntax unified
   2              		.cpu cortex-m3
   3              		.fpu softvfp
   4              		.eabi_attribute 20, 1
   5              		.eabi_attribute 21, 1
   6              		.eabi_attribute 23, 3
   7              		.eabi_attribute 24, 1
   8              		.eabi_attribute 25, 1
   9              		.eabi_attribute 26, 1
  10              		.eabi_attribute 30, 1
  11              		.eabi_attribute 34, 1
  12              		.eabi_attribute 18, 4
  13              		.thumb
  14              		.syntax unified
  15              		.file	"main.c"
  16              		.text
  17              	.Ltext0:
  18              		.cfi_sections	.debug_frame
  19              		.global	__aeabi_i2f
  20              		.global	__aeabi_fmul
  21              		.global	__aeabi_fadd
  22              		.global	__aeabi_f2d
  23              		.global	__aeabi_dcmple
  24              		.global	__aeabi_dcmpge
  25              		.global	__aeabi_fsub
  26              		.global	__aeabi_dmul
  27              		.global	__aeabi_dadd
  28              		.global	__aeabi_d2iz
  29              		.section	.text.Control,"ax",%progbits
  30              		.align	2
  31              		.global	Control
  32              		.thumb
  33              		.thumb_func
  34              		.type	Control, %function
  35              	Control:
  36              	.LFB64:
  37              		.file 1 "main.c"
   1:main.c        **** /* ========================================
   2:main.c        ****  *
   3:main.c        ****  * Copyright YOUR COMPANY, THE YEAR
   4:main.c        ****  * All Rights Reserved
   5:main.c        ****  * UNPUBLISHED, LICENSED SOFTWARE.
   6:main.c        ****  *
   7:main.c        ****  * CONFIDENTIAL AND PROPRIETARY INFORMATION
   8:main.c        ****  * WHICH IS THE PROPERTY OF your company.
   9:main.c        ****  *
  10:main.c        ****  * ========================================
  11:main.c        **** */
  12:main.c        **** #include "project.h"
  13:main.c        **** #include <stdio.h>
  14:main.c        **** #include <math.h>
  15:main.c        **** 
  16:main.c        **** 
  17:main.c        **** int16 coordx,coordy; //Coordenadas medidas de la placa
  18:main.c        **** int16 cuentx,cuenty; //Salidas al PWM
  19:main.c        **** int8 touch;
  20:main.c        **** float datax,datay,ex,ey,adx,ady,accx,accy,accx1,accy1,accx2,accy2,ex1,ey1,adcx,adcy,crucex,crucey, 
ARM GAS  C:\Users\TOSHIBA\AppData\Local\Temp\ccDRnKHe.s 			page 2


  21:main.c        **** const float ref=0, Ts=0.02,escx=2,escy=5;
  22:main.c        **** const float Kpx=0.03,Kdx=0.03,Nx=50.8753,Kpy=0.02,Kdy=0.02,Ny=50.8753;//Kpy=0.0813,Kdy=0.0456,Ny=59
  23:main.c        **** char8 str1[80],str2[80],str3[80];
  24:main.c        **** 
  25:main.c        **** 
  26:main.c        **** 
  27:main.c        **** void Control(){
  38              		.loc 1 27 0
  39              		.cfi_startproc
  40              		@ args = 0, pretend = 0, frame = 0
  41              		@ frame_needed = 0, uses_anonymous_args = 0
  42 0000 2DE9F041 		push	{r4, r5, r6, r7, r8, lr}
  43              		.cfi_def_cfa_offset 24
  44              		.cfi_offset 4, -24
  45              		.cfi_offset 5, -20
  46              		.cfi_offset 6, -16
  47              		.cfi_offset 7, -12
  48              		.cfi_offset 8, -8
  49              		.cfi_offset 14, -4
  28:main.c        ****     
  29:main.c        ****     ResistiveTouch_ActivateX();//Configura los pines para medir x
  50              		.loc 1 29 0
  51 0004 FFF7FEFF 		bl	ResistiveTouch_ActivateX
  52              	.LVL0:
  30:main.c        ****         
  31:main.c        ****     //Calculo en Y
  32:main.c        ****     datay=(adcy*coordy)+crucey;//Conversi贸n (y linealiza) de coordenada a tensi贸n
  53              		.loc 1 32 0
  54 0008 874B     		ldr	r3, .L9+40
  55 000a B3F90000 		ldrsh	r0, [r3]
  56 000e FFF7FEFF 		bl	__aeabi_i2f
  57              	.LVL1:
  58 0012 864B     		ldr	r3, .L9+44
  59 0014 1968     		ldr	r1, [r3]	@ float
  60 0016 FFF7FEFF 		bl	__aeabi_fmul
  61              	.LVL2:
  62 001a 854B     		ldr	r3, .L9+48
  63 001c 1968     		ldr	r1, [r3]	@ float
  64 001e FFF7FEFF 		bl	__aeabi_fadd
  65              	.LVL3:
  66 0022 844B     		ldr	r3, .L9+52
  67 0024 1860     		str	r0, [r3]	@ float
  33:main.c        ****     if ((datay<=0.2) & (datay>=-0.2)){
  68              		.loc 1 33 0
  69 0026 FFF7FEFF 		bl	__aeabi_f2d
  70              	.LVL4:
  71 002a 0646     		mov	r6, r0
  72 002c 0F46     		mov	r7, r1
  73 002e 4FF00105 		mov	r5, #1
  74 0032 73A3     		adr	r3, .L9
  75 0034 D3E90023 		ldrd	r2, [r3]
  76 0038 FFF7FEFF 		bl	__aeabi_dcmple
  77              	.LVL5:
  78 003c 08B9     		cbnz	r0, .L2
  79 003e 4FF00005 		mov	r5, #0
  80              	.L2:
  81 0042 4FF00104 		mov	r4, #1
ARM GAS  C:\Users\TOSHIBA\AppData\Local\Temp\ccDRnKHe.s 			page 3


  82 0046 70A3     		adr	r3, .L9+8
  83 0048 D3E90023 		ldrd	r2, [r3]
  84 004c 3046     		mov	r0, r6
  85 004e 3946     		mov	r1, r7
  86 0050 FFF7FEFF 		bl	__aeabi_dcmpge
  87              	.LVL6:
  88 0054 08B9     		cbnz	r0, .L3
  89 0056 4FF00004 		mov	r4, #0
  90              	.L3:
  91 005a 2C40     		ands	r4, r4, r5
  92 005c 14F0FF0F 		tst	r4, #255
  93 0060 02D0     		beq	.L4
  34:main.c        ****         datay=0;
  94              		.loc 1 34 0
  95 0062 0022     		movs	r2, #0
  96 0064 734B     		ldr	r3, .L9+52
  97 0066 1A60     		str	r2, [r3]	@ float
  98              	.L4:
  35:main.c        ****     }
  36:main.c        ****     ey=ref-datay;//calcula el error segun la referencia dada
  99              		.loc 1 36 0
 100 0068 724B     		ldr	r3, .L9+52
 101 006a 1968     		ldr	r1, [r3]	@ float
 102 006c 0020     		movs	r0, #0
 103 006e FFF7FEFF 		bl	__aeabi_fsub
 104              	.LVL7:
 105 0072 0446     		mov	r4, r0
 106 0074 704B     		ldr	r3, .L9+56
 107 0076 1860     		str	r0, [r3]	@ float
  37:main.c        ****     ady=-(pdy)*accy1+KNy*(ey-ey1);//calculo de la parte derivativa
 108              		.loc 1 37 0
 109 0078 704B     		ldr	r3, .L9+60
 110 007a 1868     		ldr	r0, [r3]
 111 007c 00F10040 		add	r0, r0, #-2147483648
 112 0080 6F4B     		ldr	r3, .L9+64
 113 0082 1968     		ldr	r1, [r3]	@ float
 114 0084 FFF7FEFF 		bl	__aeabi_fmul
 115              	.LVL8:
 116 0088 0546     		mov	r5, r0
 117 008a 6E4B     		ldr	r3, .L9+68
 118 008c 1968     		ldr	r1, [r3]	@ float
 119 008e 2046     		mov	r0, r4
 120 0090 FFF7FEFF 		bl	__aeabi_fsub
 121              	.LVL9:
 122 0094 6C4B     		ldr	r3, .L9+72
 123 0096 1968     		ldr	r1, [r3]	@ float
 124 0098 FFF7FEFF 		bl	__aeabi_fmul
 125              	.LVL10:
 126 009c 0146     		mov	r1, r0
 127 009e 2846     		mov	r0, r5
 128 00a0 FFF7FEFF 		bl	__aeabi_fadd
 129              	.LVL11:
 130 00a4 0546     		mov	r5, r0
 131 00a6 694B     		ldr	r3, .L9+76
 132 00a8 1860     		str	r0, [r3]	@ float
  38:main.c        ****     accy=escy*(Kpy*ey+ady);//calculo de la accion de control
 133              		.loc 1 38 0
ARM GAS  C:\Users\TOSHIBA\AppData\Local\Temp\ccDRnKHe.s 			page 4


 134 00aa 6949     		ldr	r1, .L9+80
 135 00ac 2046     		mov	r0, r4
 136 00ae FFF7FEFF 		bl	__aeabi_fmul
 137              	.LVL12:
 138 00b2 0146     		mov	r1, r0
 139 00b4 2846     		mov	r0, r5
 140 00b6 FFF7FEFF 		bl	__aeabi_fadd
 141              	.LVL13:
 142 00ba 6649     		ldr	r1, .L9+84
 143 00bc FFF7FEFF 		bl	__aeabi_fmul
 144              	.LVL14:
 145 00c0 654B     		ldr	r3, .L9+88
 146 00c2 1860     		str	r0, [r3]	@ float
  39:main.c        ****     
  40:main.c        ****     cuenty=318.31*accy+1100;
 147              		.loc 1 40 0
 148 00c4 FFF7FEFF 		bl	__aeabi_f2d
 149              	.LVL15:
 150 00c8 51A3     		adr	r3, .L9+16
 151 00ca D3E90023 		ldrd	r2, [r3]
 152 00ce FFF7FEFF 		bl	__aeabi_dmul
 153              	.LVL16:
 154 00d2 51A3     		adr	r3, .L9+24
 155 00d4 D3E90023 		ldrd	r2, [r3]
 156 00d8 FFF7FEFF 		bl	__aeabi_dadd
 157              	.LVL17:
 158 00dc FFF7FEFF 		bl	__aeabi_d2iz
 159              	.LVL18:
 160 00e0 5E4B     		ldr	r3, .L9+92
 161 00e2 1880     		strh	r0, [r3]	@ movhi
  41:main.c        ****     /*if (cuenty <= 991){
  42:main.c        ****         cuenty = 991;
  43:main.c        ****     }
  44:main.c        ****     if (cuenty >= 1208){
  45:main.c        ****         cuenty = 1208;
  46:main.c        ****     }*/
  47:main.c        ****     
  48:main.c        ****     coordx=ResistiveTouch_Measure();//toma los datos de la placa
 162              		.loc 1 48 0
 163 00e4 FFF7FEFF 		bl	ResistiveTouch_Measure
 164              	.LVL19:
 165 00e8 5D4C     		ldr	r4, .L9+96
 166 00ea 2080     		strh	r0, [r4]	@ movhi
  49:main.c        ****     
  50:main.c        ****     ResistiveTouch_ActivateY();//Configura los pines para medir y
 167              		.loc 1 50 0
 168 00ec FFF7FEFF 		bl	ResistiveTouch_ActivateY
 169              	.LVL20:
  51:main.c        ****     
  52:main.c        ****     //Calculo en X
  53:main.c        ****     datax=(adcx*coordx)+(crucex);//Conversi贸n (y linealiza) de coordenada a tensi贸n
 170              		.loc 1 53 0
 171 00f0 B4F90000 		ldrsh	r0, [r4]
 172 00f4 FFF7FEFF 		bl	__aeabi_i2f
 173              	.LVL21:
 174 00f8 5A4B     		ldr	r3, .L9+100
 175 00fa 1968     		ldr	r1, [r3]	@ float
ARM GAS  C:\Users\TOSHIBA\AppData\Local\Temp\ccDRnKHe.s 			page 5


 176 00fc FFF7FEFF 		bl	__aeabi_fmul
 177              	.LVL22:
 178 0100 594B     		ldr	r3, .L9+104
 179 0102 1968     		ldr	r1, [r3]	@ float
 180 0104 FFF7FEFF 		bl	__aeabi_fadd
 181              	.LVL23:
 182 0108 584B     		ldr	r3, .L9+108
 183 010a 1860     		str	r0, [r3]	@ float
  54:main.c        ****     if ((datax<=0.2) & (datax>=-0.2)){
 184              		.loc 1 54 0
 185 010c FFF7FEFF 		bl	__aeabi_f2d
 186              	.LVL24:
 187 0110 0646     		mov	r6, r0
 188 0112 0F46     		mov	r7, r1
 189 0114 4FF00105 		mov	r5, #1
 190 0118 39A3     		adr	r3, .L9
 191 011a D3E90023 		ldrd	r2, [r3]
 192 011e FFF7FEFF 		bl	__aeabi_dcmple
 193              	.LVL25:
 194 0122 08B9     		cbnz	r0, .L5
 195 0124 4FF00005 		mov	r5, #0
 196              	.L5:
 197 0128 4FF00104 		mov	r4, #1
 198 012c 36A3     		adr	r3, .L9+8
 199 012e D3E90023 		ldrd	r2, [r3]
 200 0132 3046     		mov	r0, r6
 201 0134 3946     		mov	r1, r7
 202 0136 FFF7FEFF 		bl	__aeabi_dcmpge
 203              	.LVL26:
 204 013a 08B9     		cbnz	r0, .L6
 205 013c 4FF00004 		mov	r4, #0
 206              	.L6:
 207 0140 2C40     		ands	r4, r4, r5
 208 0142 14F0FF0F 		tst	r4, #255
 209 0146 02D0     		beq	.L7
  55:main.c        ****         datax=0;
 210              		.loc 1 55 0
 211 0148 0022     		movs	r2, #0
 212 014a 484B     		ldr	r3, .L9+108
 213 014c 1A60     		str	r2, [r3]	@ float
 214              	.L7:
  56:main.c        ****     }
  57:main.c        ****     ex=ref-datax;//calcula el error segun la referencia dada
 215              		.loc 1 57 0
 216 014e 474B     		ldr	r3, .L9+108
 217 0150 1968     		ldr	r1, [r3]	@ float
 218 0152 0020     		movs	r0, #0
 219 0154 FFF7FEFF 		bl	__aeabi_fsub
 220              	.LVL27:
 221 0158 0446     		mov	r4, r0
 222 015a 454E     		ldr	r6, .L9+112
 223 015c 3060     		str	r0, [r6]	@ float
  58:main.c        ****     adx=-(pdx)*accx1+KNx*(ex-ex1);//calculo de la parte derivativa
 224              		.loc 1 58 0
 225 015e 454B     		ldr	r3, .L9+116
 226 0160 1868     		ldr	r0, [r3]
 227 0162 00F10040 		add	r0, r0, #-2147483648
ARM GAS  C:\Users\TOSHIBA\AppData\Local\Temp\ccDRnKHe.s 			page 6


 228 0166 444F     		ldr	r7, .L9+120
 229 0168 3968     		ldr	r1, [r7]	@ float
 230 016a FFF7FEFF 		bl	__aeabi_fmul
 231              	.LVL28:
 232 016e 8046     		mov	r8, r0
 233 0170 424D     		ldr	r5, .L9+124
 234 0172 2968     		ldr	r1, [r5]	@ float
 235 0174 2046     		mov	r0, r4
 236 0176 FFF7FEFF 		bl	__aeabi_fsub
 237              	.LVL29:
 238 017a 414B     		ldr	r3, .L9+128
 239 017c 1968     		ldr	r1, [r3]	@ float
 240 017e FFF7FEFF 		bl	__aeabi_fmul
 241              	.LVL30:
 242 0182 0146     		mov	r1, r0
 243 0184 4046     		mov	r0, r8
 244 0186 FFF7FEFF 		bl	__aeabi_fadd
 245              	.LVL31:
 246 018a 8046     		mov	r8, r0
 247 018c 3D4B     		ldr	r3, .L9+132
 248 018e 1860     		str	r0, [r3]	@ float
  59:main.c        ****     accx=escx*(Kpx*ex+adx);//calculo de la accion de control
 249              		.loc 1 59 0
 250 0190 3D49     		ldr	r1, .L9+136
 251 0192 2046     		mov	r0, r4
 252 0194 FFF7FEFF 		bl	__aeabi_fmul
 253              	.LVL32:
 254 0198 0146     		mov	r1, r0
 255 019a 4046     		mov	r0, r8
 256 019c FFF7FEFF 		bl	__aeabi_fadd
 257              	.LVL33:
 258 01a0 0146     		mov	r1, r0
 259 01a2 FFF7FEFF 		bl	__aeabi_fadd
 260              	.LVL34:
 261 01a6 394C     		ldr	r4, .L9+140
 262 01a8 2060     		str	r0, [r4]	@ float
  60:main.c        ****     
  61:main.c        ****     
  62:main.c        ****     cuentx=318.31*accx+1350;
 263              		.loc 1 62 0
 264 01aa FFF7FEFF 		bl	__aeabi_f2d
 265              	.LVL35:
 266 01ae 18A3     		adr	r3, .L9+16
 267 01b0 D3E90023 		ldrd	r2, [r3]
 268 01b4 FFF7FEFF 		bl	__aeabi_dmul
 269              	.LVL36:
 270 01b8 19A3     		adr	r3, .L9+32
 271 01ba D3E90023 		ldrd	r2, [r3]
 272 01be FFF7FEFF 		bl	__aeabi_dadd
 273              	.LVL37:
 274 01c2 FFF7FEFF 		bl	__aeabi_d2iz
 275              	.LVL38:
 276 01c6 00B2     		sxth	r0, r0
 277 01c8 314B     		ldr	r3, .L9+144
 278 01ca 1880     		strh	r0, [r3]	@ movhi
  63:main.c        ****     /*if (cuentx <= 1205){
  64:main.c        ****         cuentx = 1205;
ARM GAS  C:\Users\TOSHIBA\AppData\Local\Temp\ccDRnKHe.s 			page 7


  65:main.c        ****     }
  66:main.c        ****     if (cuentx >= 1490){
  67:main.c        ****         cuentx = 1490;
  68:main.c        ****     }*/   
  69:main.c        ****     
  70:main.c        ****     //Escribe las cuentas en los PWM
  71:main.c        ****     PWM_X_WriteCompare(cuentx);
 279              		.loc 1 71 0
 280 01cc 80B2     		uxth	r0, r0
 281 01ce FFF7FEFF 		bl	PWM_X_WriteCompare
 282              	.LVL39:
  72:main.c        ****     PWM_Y_WriteCompare(cuenty);
 283              		.loc 1 72 0
 284 01d2 224B     		ldr	r3, .L9+92
 285 01d4 1888     		ldrh	r0, [r3]
 286 01d6 FFF7FEFF 		bl	PWM_Y_WriteCompare
 287              	.LVL40:
  73:main.c        ****     
  74:main.c        ****     accx1=accx;//guarda la accion de control anterior de x
 288              		.loc 1 74 0
 289 01da 2368     		ldr	r3, [r4]	@ float
 290 01dc 3B60     		str	r3, [r7]	@ float
  75:main.c        ****     ex1=ex;//guarda el error anterior de x
 291              		.loc 1 75 0
 292 01de 3368     		ldr	r3, [r6]	@ float
 293 01e0 2B60     		str	r3, [r5]	@ float
  76:main.c        ****     accy1=accy;//guarda la accion de control anterior de y
 294              		.loc 1 76 0
 295 01e2 1D4B     		ldr	r3, .L9+88
 296 01e4 1A68     		ldr	r2, [r3]	@ float
 297 01e6 164B     		ldr	r3, .L9+64
 298 01e8 1A60     		str	r2, [r3]	@ float
  77:main.c        ****     ey1=ey;//guarda el error anterior de y
 299              		.loc 1 77 0
 300 01ea 134B     		ldr	r3, .L9+56
 301 01ec 1A68     		ldr	r2, [r3]	@ float
 302 01ee 154B     		ldr	r3, .L9+68
 303 01f0 1A60     		str	r2, [r3]	@ float
  78:main.c        **** 
  79:main.c        ****     coordy=ResistiveTouch_Measure();//toma los datos de la placa
 304              		.loc 1 79 0
 305 01f2 FFF7FEFF 		bl	ResistiveTouch_Measure
 306              	.LVL41:
 307 01f6 0C4B     		ldr	r3, .L9+40
 308 01f8 1880     		strh	r0, [r3]	@ movhi
 309 01fa BDE8F081 		pop	{r4, r5, r6, r7, r8, pc}
 310              	.L10:
 311 01fe 00BF     		.align	3
 312              	.L9:
 313 0200 9A999999 		.word	-1717986918
 314 0204 9999C93F 		.word	1070176665
 315 0208 9A999999 		.word	-1717986918
 316 020c 9999C9BF 		.word	-1077306983
 317 0210 295C8FC2 		.word	-1030792151
 318 0214 F5E47340 		.word	1081337077
 319 0218 00000000 		.word	0
 320 021c 00309140 		.word	1083256832
ARM GAS  C:\Users\TOSHIBA\AppData\Local\Temp\ccDRnKHe.s 			page 8


 321 0220 00000000 		.word	0
 322 0224 00189540 		.word	1083512832
 323 0228 00000000 		.word	coordy
 324 022c 00000000 		.word	adcy
 325 0230 00000000 		.word	crucey
 326 0234 00000000 		.word	datay
 327 0238 00000000 		.word	ey
 328 023c 00000000 		.word	pdy
 329 0240 00000000 		.word	accy1
 330 0244 00000000 		.word	ey1
 331 0248 00000000 		.word	KNy
 332 024c 00000000 		.word	ady
 333 0250 0AD7A33C 		.word	1017370378
 334 0254 0000A040 		.word	1084227584
 335 0258 00000000 		.word	accy
 336 025c 00000000 		.word	cuenty
 337 0260 00000000 		.word	coordx
 338 0264 00000000 		.word	adcx
 339 0268 00000000 		.word	crucex
 340 026c 00000000 		.word	datax
 341 0270 00000000 		.word	ex
 342 0274 00000000 		.word	pdx
 343 0278 00000000 		.word	accx1
 344 027c 00000000 		.word	ex1
 345 0280 00000000 		.word	KNx
 346 0284 00000000 		.word	adx
 347 0288 8FC2F53C 		.word	1022739087
 348 028c 00000000 		.word	accx
 349 0290 00000000 		.word	cuentx
 350              		.cfi_endproc
 351              	.LFE64:
 352              		.size	Control, .-Control
 353              		.section	.text.isr_Muestreo,"ax",%progbits
 354              		.align	2
 355              		.global	isr_Muestreo
 356              		.thumb
 357              		.thumb_func
 358              		.type	isr_Muestreo, %function
 359              	isr_Muestreo:
 360              	.LFB65:
  80:main.c        **** }
  81:main.c        **** 
  82:main.c        **** CY_ISR(isr_Muestreo){
 361              		.loc 1 82 0
 362              		.cfi_startproc
 363              		@ args = 0, pretend = 0, frame = 0
 364              		@ frame_needed = 0, uses_anonymous_args = 0
 365 0000 10B5     		push	{r4, lr}
 366              		.cfi_def_cfa_offset 8
 367              		.cfi_offset 4, -8
 368              		.cfi_offset 14, -4
  83:main.c        ****     touch=ResistiveTouch_TouchDetect();
 369              		.loc 1 83 0
 370 0002 FFF7FEFF 		bl	ResistiveTouch_TouchDetect
 371              	.LVL42:
 372 0006 40B2     		sxtb	r0, r0
 373 0008 0E4B     		ldr	r3, .L15
ARM GAS  C:\Users\TOSHIBA\AppData\Local\Temp\ccDRnKHe.s 			page 9


 374 000a 1870     		strb	r0, [r3]
  84:main.c        ****     if (touch==1){
 375              		.loc 1 84 0
 376 000c 0128     		cmp	r0, #1
 377 000e 02D1     		bne	.L12
  85:main.c        ****         Control();
 378              		.loc 1 85 0
 379 0010 FFF7FEFF 		bl	Control
 380              	.LVL43:
 381 0014 10BD     		pop	{r4, pc}
 382              	.L12:
  86:main.c        ****     }
  87:main.c        ****     else{
  88:main.c        ****         accx=0;
 383              		.loc 1 88 0
 384 0016 0023     		movs	r3, #0
 385 0018 0B4A     		ldr	r2, .L15+4
 386 001a 1360     		str	r3, [r2]	@ float
  89:main.c        ****         accy=0;
 387              		.loc 1 89 0
 388 001c 0B4A     		ldr	r2, .L15+8
 389 001e 1360     		str	r3, [r2]	@ float
  90:main.c        ****         datax=0;
 390              		.loc 1 90 0
 391 0020 0B4A     		ldr	r2, .L15+12
 392 0022 1360     		str	r3, [r2]	@ float
  91:main.c        ****         datay=0;
 393              		.loc 1 91 0
 394 0024 0B4A     		ldr	r2, .L15+16
 395 0026 1360     		str	r3, [r2]	@ float
  92:main.c        ****         cuentx=1350;
 396              		.loc 1 92 0
 397 0028 40F24650 		movw	r0, #1350
 398 002c 0A4B     		ldr	r3, .L15+20
 399 002e 1880     		strh	r0, [r3]	@ movhi
  93:main.c        ****         cuenty=1100;
 400              		.loc 1 93 0
 401 0030 0A4C     		ldr	r4, .L15+24
 402 0032 40F24C43 		movw	r3, #1100
 403 0036 2380     		strh	r3, [r4]	@ movhi
  94:main.c        ****         PWM_X_WriteCompare(cuentx);
 404              		.loc 1 94 0
 405 0038 FFF7FEFF 		bl	PWM_X_WriteCompare
 406              	.LVL44:
  95:main.c        ****         PWM_Y_WriteCompare(cuenty);
 407              		.loc 1 95 0
 408 003c 2088     		ldrh	r0, [r4]
 409 003e FFF7FEFF 		bl	PWM_Y_WriteCompare
 410              	.LVL45:
 411 0042 10BD     		pop	{r4, pc}
 412              	.L16:
 413              		.align	2
 414              	.L15:
 415 0044 00000000 		.word	touch
 416 0048 00000000 		.word	accx
 417 004c 00000000 		.word	accy
 418 0050 00000000 		.word	datax
ARM GAS  C:\Users\TOSHIBA\AppData\Local\Temp\ccDRnKHe.s 			page 10


 419 0054 00000000 		.word	datay
 420 0058 00000000 		.word	cuentx
 421 005c 00000000 		.word	cuenty
 422              		.cfi_endproc
 423              	.LFE65:
 424              		.size	isr_Muestreo, .-isr_Muestreo
 425              		.section	.text.main,"ax",%progbits
 426              		.align	2
 427              		.global	main
 428              		.thumb
 429              		.thumb_func
 430              		.type	main, %function
 431              	main:
 432              	.LFB66:
  96:main.c        ****     }
  97:main.c        **** }
  98:main.c        **** 
  99:main.c        **** int main(void)
 100:main.c        **** {
 433              		.loc 1 100 0
 434              		.cfi_startproc
 435              		@ Volatile: function does not return.
 436              		@ args = 0, pretend = 0, frame = 0
 437              		@ frame_needed = 0, uses_anonymous_args = 0
 438 0000 08B5     		push	{r3, lr}
 439              		.cfi_def_cfa_offset 8
 440              		.cfi_offset 3, -8
 441              		.cfi_offset 14, -4
 101:main.c        ****     /* Place your initialization/startup code here (e.g. MyInst_Start()) */
 102:main.c        ****     PWM_X_Start();
 442              		.loc 1 102 0
 443 0002 FFF7FEFF 		bl	PWM_X_Start
 444              	.LVL46:
 103:main.c        ****     PWM_Y_Start();
 445              		.loc 1 103 0
 446 0006 FFF7FEFF 		bl	PWM_Y_Start
 447              	.LVL47:
 104:main.c        ****     ResistiveTouch_Start();
 448              		.loc 1 104 0
 449 000a FFF7FEFF 		bl	ResistiveTouch_Start
 450              	.LVL48:
 105:main.c        ****     Timer_Start();
 451              		.loc 1 105 0
 452 000e FFF7FEFF 		bl	Timer_Start
 453              	.LVL49:
 106:main.c        ****     LCD_Char_Start();
 454              		.loc 1 106 0
 455 0012 FFF7FEFF 		bl	LCD_Char_Start
 456              	.LVL50:
 107:main.c        ****     isr_Timer_StartEx(isr_Muestreo);
 457              		.loc 1 107 0
 458 0016 3348     		ldr	r0, .L20
 459 0018 FFF7FEFF 		bl	isr_Timer_StartEx
 460              	.LVL51:
 108:main.c        ****     CyGlobalIntEnable; /* Enable global interrupts. */
 461              		.loc 1 108 0
 462              		.syntax unified
ARM GAS  C:\Users\TOSHIBA\AppData\Local\Temp\ccDRnKHe.s 			page 11


 463              	@ 108 "main.c" 1
 464 001c 62B6     		CPSIE   i
 465              	@ 0 "" 2
 109:main.c        ****     CY_ISR_PROTO(isr_Muestreo);
 110:main.c        ****     
 111:main.c        ****     coordx = 0;
 466              		.loc 1 111 0
 467              		.thumb
 468              		.syntax unified
 469 001e 0023     		movs	r3, #0
 470 0020 314A     		ldr	r2, .L20+4
 471 0022 1380     		strh	r3, [r2]	@ movhi
 112:main.c        ****     coordy = 0;
 472              		.loc 1 112 0
 473 0024 314A     		ldr	r2, .L20+8
 474 0026 1380     		strh	r3, [r2]	@ movhi
 113:main.c        ****     datax=0,datay=0,ex=0,ey=0,adx=0,ady=0,accx=0,accy=0,accx1=0,accy1=0,accx2=0,accy2=0,ex1=0,ey1=0
 475              		.loc 1 113 0
 476 0028 0023     		movs	r3, #0
 477 002a 314A     		ldr	r2, .L20+12
 478 002c 1360     		str	r3, [r2]	@ float
 479 002e 314A     		ldr	r2, .L20+16
 480 0030 1360     		str	r3, [r2]	@ float
 481 0032 314A     		ldr	r2, .L20+20
 482 0034 1360     		str	r3, [r2]	@ float
 483 0036 314A     		ldr	r2, .L20+24
 484 0038 1360     		str	r3, [r2]	@ float
 485 003a 314A     		ldr	r2, .L20+28
 486 003c 1360     		str	r3, [r2]	@ float
 487 003e 314A     		ldr	r2, .L20+32
 488 0040 1360     		str	r3, [r2]	@ float
 489 0042 314A     		ldr	r2, .L20+36
 490 0044 1360     		str	r3, [r2]	@ float
 491 0046 314A     		ldr	r2, .L20+40
 492 0048 1360     		str	r3, [r2]	@ float
 493 004a 314A     		ldr	r2, .L20+44
 494 004c 1360     		str	r3, [r2]	@ float
 495 004e 314A     		ldr	r2, .L20+48
 496 0050 1360     		str	r3, [r2]	@ float
 497 0052 314A     		ldr	r2, .L20+52
 498 0054 1360     		str	r3, [r2]	@ float
 499 0056 314A     		ldr	r2, .L20+56
 500 0058 1360     		str	r3, [r2]	@ float
 501 005a 314A     		ldr	r2, .L20+60
 502 005c 1360     		str	r3, [r2]	@ float
 503 005e 314A     		ldr	r2, .L20+64
 504 0060 1360     		str	r3, [r2]	@ float
 114:main.c        ****     adcx=0.00131,adcy=0.00136,crucex = -2.79, crucey = -2.64;//-2.53,-2,91
 505              		.loc 1 114 0
 506 0062 314A     		ldr	r2, .L20+68
 507 0064 314B     		ldr	r3, .L20+72
 508 0066 1A60     		str	r2, [r3]	@ float
 509 0068 314A     		ldr	r2, .L20+76
 510 006a 324B     		ldr	r3, .L20+80
 511 006c 1A60     		str	r2, [r3]	@ float
 512 006e 324A     		ldr	r2, .L20+84
 513 0070 324B     		ldr	r3, .L20+88
ARM GAS  C:\Users\TOSHIBA\AppData\Local\Temp\ccDRnKHe.s 			page 12


 514 0072 1A60     		str	r2, [r3]	@ float
 515 0074 324A     		ldr	r2, .L20+92
 516 0076 334B     		ldr	r3, .L20+96
 517 0078 1A60     		str	r2, [r3]	@ float
 115:main.c        ****     pdy=(Ny*Ts-1), pdx=(Nx*Ts-1), KNx=Kdx*Nx, KNy=Kdy*Ny;
 518              		.loc 1 115 0
 519 007a 334B     		ldr	r3, .L20+100
 520 007c 334A     		ldr	r2, .L20+104
 521 007e 1360     		str	r3, [r2]	@ float
 522 0080 334A     		ldr	r2, .L20+108
 523 0082 1360     		str	r3, [r2]	@ float
 524 0084 334A     		ldr	r2, .L20+112
 525 0086 344B     		ldr	r3, .L20+116
 526 0088 1A60     		str	r2, [r3]	@ float
 527 008a 344A     		ldr	r2, .L20+120
 528 008c 344B     		ldr	r3, .L20+124
 529 008e 1A60     		str	r2, [r3]	@ float
 530              	.L18:
 116:main.c        ****     for(;;)
 117:main.c        ****     {
 118:main.c        ****         sprintf(str1,"Coord.X: %f",datax);
 531              		.loc 1 118 0 discriminator 1
 532 0090 174B     		ldr	r3, .L20+12
 533 0092 1868     		ldr	r0, [r3]	@ float
 534 0094 FFF7FEFF 		bl	__aeabi_f2d
 535              	.LVL52:
 536 0098 324D     		ldr	r5, .L20+128
 537 009a 0246     		mov	r2, r0
 538 009c 0B46     		mov	r3, r1
 539 009e 3249     		ldr	r1, .L20+132
 540 00a0 2846     		mov	r0, r5
 541 00a2 FFF7FEFF 		bl	sprintf
 542              	.LVL53:
 119:main.c        ****         sprintf(str2,"Coord.Y: %f",datay);
 543              		.loc 1 119 0 discriminator 1
 544 00a6 134B     		ldr	r3, .L20+16
 545 00a8 1868     		ldr	r0, [r3]	@ float
 546 00aa FFF7FEFF 		bl	__aeabi_f2d
 547              	.LVL54:
 548 00ae 2F4C     		ldr	r4, .L20+136
 549 00b0 0246     		mov	r2, r0
 550 00b2 0B46     		mov	r3, r1
 551 00b4 2E49     		ldr	r1, .L20+140
 552 00b6 2046     		mov	r0, r4
 553 00b8 FFF7FEFF 		bl	sprintf
 554              	.LVL55:
 120:main.c        ****         LCD_Char_Position(0u,0u);
 555              		.loc 1 120 0 discriminator 1
 556 00bc 0021     		movs	r1, #0
 557 00be 0846     		mov	r0, r1
 558 00c0 FFF7FEFF 		bl	LCD_Char_Position
 559              	.LVL56:
 121:main.c        ****         LCD_Char_PrintString(str1);
 560              		.loc 1 121 0 discriminator 1
 561 00c4 2846     		mov	r0, r5
 562 00c6 FFF7FEFF 		bl	LCD_Char_PrintString
 563              	.LVL57:
ARM GAS  C:\Users\TOSHIBA\AppData\Local\Temp\ccDRnKHe.s 			page 13


 122:main.c        ****         LCD_Char_Position(1u,0u);
 564              		.loc 1 122 0 discriminator 1
 565 00ca 0021     		movs	r1, #0
 566 00cc 0120     		movs	r0, #1
 567 00ce FFF7FEFF 		bl	LCD_Char_Position
 568              	.LVL58:
 123:main.c        ****         LCD_Char_PrintString(str2);
 569              		.loc 1 123 0 discriminator 1
 570 00d2 2046     		mov	r0, r4
 571 00d4 FFF7FEFF 		bl	LCD_Char_PrintString
 572              	.LVL59:
 124:main.c        ****         CyDelay(500u);
 573              		.loc 1 124 0 discriminator 1
 574 00d8 4FF4FA70 		mov	r0, #500
 575 00dc FFF7FEFF 		bl	CyDelay
 576              	.LVL60:
 577 00e0 D6E7     		b	.L18
 578              	.L21:
 579 00e2 00BF     		.align	2
 580              	.L20:
 581 00e4 00000000 		.word	isr_Muestreo
 582 00e8 00000000 		.word	coordx
 583 00ec 00000000 		.word	coordy
 584 00f0 00000000 		.word	datax
 585 00f4 00000000 		.word	datay
 586 00f8 00000000 		.word	ex
 587 00fc 00000000 		.word	ey
 588 0100 00000000 		.word	adx
 589 0104 00000000 		.word	ady
 590 0108 00000000 		.word	accx
 591 010c 00000000 		.word	accy
 592 0110 00000000 		.word	accx1
 593 0114 00000000 		.word	accy1
 594 0118 00000000 		.word	accx2
 595 011c 00000000 		.word	accy2
 596 0120 00000000 		.word	ex1
 597 0124 00000000 		.word	ey1
 598 0128 4EB4AB3A 		.word	984331342
 599 012c 00000000 		.word	adcx
 600 0130 0742B23A 		.word	984760839
 601 0134 00000000 		.word	adcy
 602 0138 5C8F32C0 		.word	-1070428324
 603 013c 00000000 		.word	crucex
 604 0140 C3F528C0 		.word	-1071057469
 605 0144 00000000 		.word	crucey
 606 0148 C0688F3C 		.word	1016031424
 607 014c 00000000 		.word	pdy
 608 0150 00000000 		.word	pdx
 609 0154 755CC33F 		.word	1069767797
 610 0158 00000000 		.word	KNx
 611 015c A33D823F 		.word	1065500067
 612 0160 00000000 		.word	KNy
 613 0164 00000000 		.word	str1
 614 0168 00000000 		.word	.LC0
 615 016c 00000000 		.word	str2
 616 0170 0C000000 		.word	.LC1
 617              		.cfi_endproc
ARM GAS  C:\Users\TOSHIBA\AppData\Local\Temp\ccDRnKHe.s 			page 14


 618              	.LFE66:
 619              		.size	main, .-main
 620              		.comm	str3,80,4
 621              		.comm	str2,80,4
 622              		.comm	str1,80,4
 623              		.global	Ny
 624              		.global	Kdy
 625              		.global	Kpy
 626              		.global	Nx
 627              		.global	Kdx
 628              		.global	Kpx
 629              		.global	escy
 630              		.global	escx
 631              		.global	Ts
 632              		.global	ref
 633              		.comm	KNy,4,4
 634              		.comm	KNx,4,4
 635              		.comm	pdy,4,4
 636              		.comm	pdx,4,4
 637              		.comm	crucey,4,4
 638              		.comm	crucex,4,4
 639              		.comm	adcy,4,4
 640              		.comm	adcx,4,4
 641              		.comm	ey1,4,4
 642              		.comm	ex1,4,4
 643              		.comm	accy2,4,4
 644              		.comm	accx2,4,4
 645              		.comm	accy1,4,4
 646              		.comm	accx1,4,4
 647              		.comm	accy,4,4
 648              		.comm	accx,4,4
 649              		.comm	ady,4,4
 650              		.comm	adx,4,4
 651              		.comm	ey,4,4
 652              		.comm	ex,4,4
 653              		.comm	datay,4,4
 654              		.comm	datax,4,4
 655              		.comm	touch,1,1
 656              		.comm	cuenty,2,2
 657              		.comm	cuentx,2,2
 658              		.comm	coordy,2,2
 659              		.comm	coordx,2,2
 660              		.section	.rodata
 661              		.align	2
 662              		.type	Ny, %object
 663              		.size	Ny, 4
 664              	Ny:
 665 0000 4F804B42 		.word	1112244303
 666              		.type	Kdy, %object
 667              		.size	Kdy, 4
 668              	Kdy:
 669 0004 0AD7A33C 		.word	1017370378
 670              		.type	Kpy, %object
 671              		.size	Kpy, 4
 672              	Kpy:
 673 0008 0AD7A33C 		.word	1017370378
 674              		.type	Nx, %object
ARM GAS  C:\Users\TOSHIBA\AppData\Local\Temp\ccDRnKHe.s 			page 15


 675              		.size	Nx, 4
 676              	Nx:
 677 000c 4F804B42 		.word	1112244303
 678              		.type	Kdx, %object
 679              		.size	Kdx, 4
 680              	Kdx:
 681 0010 8FC2F53C 		.word	1022739087
 682              		.type	Kpx, %object
 683              		.size	Kpx, 4
 684              	Kpx:
 685 0014 8FC2F53C 		.word	1022739087
 686              		.type	escy, %object
 687              		.size	escy, 4
 688              	escy:
 689 0018 0000A040 		.word	1084227584
 690              		.type	escx, %object
 691              		.size	escx, 4
 692              	escx:
 693 001c 00000040 		.word	1073741824
 694              		.type	Ts, %object
 695              		.size	Ts, 4
 696              	Ts:
 697 0020 0AD7A33C 		.word	1017370378
 698              		.type	ref, %object
 699              		.size	ref, 4
 700              	ref:
 701 0024 00000000 		.space	4
 702              		.section	.rodata.str1.4,"aMS",%progbits,1
 703              		.align	2
 704              	.LC0:
 705 0000 436F6F72 		.ascii	"Coord.X: %f\000"
 705      642E583A 
 705      20256600 
 706              	.LC1:
 707 000c 436F6F72 		.ascii	"Coord.Y: %f\000"
 707      642E593A 
 707      20256600 
 708              		.text
 709              	.Letext0:
 710              		.file 2 "c:\\program files (x86)\\cypress\\psoc creator\\4.1\\psoc creator\\import\\gnu\\arm\\5.4.
 711              		.file 3 "c:\\program files (x86)\\cypress\\psoc creator\\4.1\\psoc creator\\import\\gnu\\arm\\5.4.
 712              		.file 4 "Generated_Source\\PSoC5/cytypes.h"
 713              		.file 5 "Generated_Source\\PSoC5/core_cm3.h"
 714              		.file 6 "Generated_Source\\PSoC5/ResistiveTouch.h"
 715              		.file 7 "Generated_Source\\PSoC5/PWM_X.h"
 716              		.file 8 "Generated_Source\\PSoC5/PWM_Y.h"
 717              		.file 9 "Generated_Source\\PSoC5/Timer.h"
 718              		.file 10 "Generated_Source\\PSoC5/LCD_Char.h"
 719              		.file 11 "Generated_Source\\PSoC5/isr_Timer.h"
 720              		.file 12 "c:\\program files (x86)\\cypress\\psoc creator\\4.1\\psoc creator\\import\\gnu\\arm\\5.4
 721              		.file 13 "Generated_Source\\PSoC5/CyLib.h"